; Function Attrs: mustprogress nofree nounwind uwtable
define dso_local noundef i32 @stbi_is_hdr(ptr noundef readonly captures(none) %0) local_unnamed_addr #8 {
  %2 = tail call noalias noundef ptr @fopen(ptr noundef readonly %0, ptr noundef nonnull @.str)
  %.not = icmp eq ptr %2, null
  br i1 %.not, label %5, label %3

3:                                                ; preds = %1
  %4 = tail call i32 @fclose(ptr noundef nonnull %2)
  br label %5

5:                                                ; preds = %3, %1
  ret i32 0
}